target datalayout = "e-m:e-p270:32:32-p271:32:32-p272:64:64-i64:64-i128:128-f80:128-n8:16:32:64-S128"
target triple = "x86_64-pc-linux-gnu"

%struct.SDL_HIDAPI_Device = type { ptr, ptr, ptr, ptr, i16, i16, i16, ptr, %struct.SDL_GUID, i32, i32, i32, i32, i16, i16, i8, i32, i32, i32, ptr, ptr, ptr, ptr, %struct.SDL_AtomicInt, i32, ptr, i8, i8, i8, ptr, i32, ptr, ptr }
%struct.SDL_GUID = type { [16 x i8] }
%struct.SDL_AtomicInt = type { i32 }
%struct.SDL_DriverPS3_Context = type { ptr, ptr, i8, i8, i8, i8, i32, i8, i8, [64 x i8] }
%struct.SDL_Joystick = type { i32, ptr, ptr, ptr, %struct.SDL_GUID, i16, i64, i8, i8, i32, ptr, i32, ptr, i32, ptr, i32, ptr, i32, ptr, i32, i32, ptr, i16, i16, i64, i64, i16, i16, i64, i64, i8, i8, i8, i64, i8, i32, i32, i32, i8, i32, ptr, i32, ptr, [3 x [3 x float]], i64, ptr, ptr, i32, i32, ptr }

; Function Attrs: nounwind uwtable
define internal zeroext i1 @HIDAPI_DriverPS3_OpenJoystick(ptr noundef %0, ptr noundef %1) #0 {
  %3 = alloca ptr, align 8
  %4 = alloca ptr, align 8
  %5 = alloca ptr, align 8
  store ptr %0, ptr %3, align 8
  store ptr %1, ptr %4, align 8
  call void @llvm.lifetime.start.p0(i64 8, ptr %5) #7
  %6 = load ptr, ptr %3, align 8
  %7 = getelementptr inbounds nuw %struct.SDL_HIDAPI_Device, ptr %6, i32 0, i32 20
  %8 = load ptr, ptr %7, align 8
  store ptr %8, ptr %5, align 8
  call void @SDL_AssertJoysticksLocked()
  %9 = load ptr, ptr %4, align 8
  %10 = load ptr, ptr %5, align 8
  %11 = getelementptr inbounds nuw %struct.SDL_DriverPS3_Context, ptr %10, i32 0, i32 1
  store ptr %9, ptr %11, align 8
  %12 = load ptr, ptr %5, align 8
  %13 = getelementptr inbounds nuw %struct.SDL_DriverPS3_Context, ptr %12, i32 0, i32 5
  store i8 0, ptr %13, align 1
  %14 = load ptr, ptr %5, align 8
  %15 = getelementptr inbounds nuw %struct.SDL_DriverPS3_Context, ptr %14, i32 0, i32 7
  store i8 0, ptr %15, align 8
  %16 = load ptr, ptr %5, align 8
  %17 = getelementptr inbounds nuw %struct.SDL_DriverPS3_Context, ptr %16, i32 0, i32 8
  store i8 0, ptr %17, align 1
  %18 = load ptr, ptr %5, align 8
  %19 = getelementptr inbounds nuw %struct.SDL_DriverPS3_Context, ptr %18, i32 0, i32 9
  %20 = getelementptr inbounds [64 x i8], ptr %19, i64 0, i64 0
  call void @llvm.memset.p0.i64(ptr align 2 %20, i8 0, i64 64, i1 false)
  %21 = load ptr, ptr %4, align 8
  %22 = call i32 @SDL_GetJoystickPlayerIndex_REAL(ptr noundef %21)
  %23 = load ptr, ptr %5, align 8
  %24 = getelementptr inbounds nuw %struct.SDL_DriverPS3_Context, ptr %23, i32 0, i32 6
  store i32 %22, ptr %24, align 4
  %25 = load ptr, ptr %4, align 8
  %26 = getelementptr inbounds nuw %struct.SDL_Joystick, ptr %25, i32 0, i32 15
  store i32 11, ptr %26, align 8
  %27 = load ptr, ptr %4, align 8
  %28 = getelementptr inbounds nuw %struct.SDL_Joystick, ptr %27, i32 0, i32 9
  store i32 6, ptr %28, align 4
  %29 = load ptr, ptr %5, align 8
  %30 = getelementptr inbounds nuw %struct.SDL_DriverPS3_Context, ptr %29, i32 0, i32 3
  %31 = load i8, ptr %30, align 1, !range !3, !noundef !4
  %32 = trunc i8 %31 to i1
  br i1 %32, label %33, label %38

33:                                               ; preds = %2
  %34 = load ptr, ptr %4, align 8
  %35 = getelementptr inbounds nuw %struct.SDL_Joystick, ptr %34, i32 0, i32 9
  %36 = load i32, ptr %35, align 4
  %37 = add nsw i32 %36, 10
  store i32 %37, ptr %35, align 4
  br label %38

38:                                               ; preds = %33, %2
  %39 = load ptr, ptr %4, align 8
  %40 = getelementptr inbounds nuw %struct.SDL_Joystick, ptr %39, i32 0, i32 13
  store i32 1, ptr %40, align 8
  %41 = load ptr, ptr %4, align 8
  call void @SDL_PrivateJoystickAddSensor(ptr noundef %41, i32 noundef 1, float noundef 1.000000e+02)
  call void @llvm.lifetime.end.p0(i64 8, ptr %5) #7
  ret i1 true
}